; Function Attrs: mustprogress uwtable
define hidden noundef zeroext i1 @_ZN3sls10arith_baseI13checked_int64ILb1EEE6is_numEP4exprRS2_(ptr noundef nonnull align 8 dereferenceable(672) %0, ptr noundef %1, ptr noundef nonnull writeonly align 8 captures(none) dereferenceable(8) %2) local_unnamed_addr #3 align 2 personality ptr @__gxx_personality_v0 {
  %4 = alloca %class.rational, align 8
  call void @llvm.lifetime.start.p0(i64 32, ptr nonnull %4) #26
  store i32 0, ptr %4, align 8, !tbaa !3
  %5 = getelementptr inbounds nuw i8, ptr %4, i64 4
  store i8 0, ptr %5, align 4
  %6 = getelementptr inbounds nuw i8, ptr %4, i64 8
  store ptr null, ptr %6, align 8, !tbaa !10
  %7 = getelementptr inbounds nuw i8, ptr %4, i64 16
  store i32 1, ptr %7, align 8, !tbaa !3
  %8 = getelementptr inbounds nuw i8, ptr %4, i64 20
  store i8 0, ptr %8, align 4
  %9 = getelementptr inbounds nuw i8, ptr %4, i64 24
  store ptr null, ptr %9, align 8, !tbaa !10
  %10 = getelementptr inbounds nuw i8, ptr %0, i64 272
  %11 = invoke noundef zeroext i1 @_ZNK10arith_util19is_extended_numeralEP4exprR8rational(ptr noundef nonnull align 8 dereferenceable(16) %10, ptr noundef %1, ptr noundef nonnull align 8 dereferenceable(32) %4)
          to label %12 unwind label %24

12:                                               ; preds = %3
  br i1 %11, label %13, label %31

13:                                               ; preds = %12
  %14 = load i8, ptr %8, align 4
  %15 = and i8 %14, 1
  %16 = icmp eq i8 %15, 0
  %17 = load i32, ptr %7, align 8
  %18 = icmp eq i32 %17, 1
  %19 = select i1 %16, i1 %18, i1 false
  br i1 %19, label %20, label %_ZNK8rational8is_int64Ev.exit.thread

20:                                               ; preds = %13
  %21 = load ptr, ptr @_ZN8rational13g_mpq_managerE, align 8, !tbaa !11
  %22 = invoke noundef zeroext i1 @_ZNK11mpz_managerILb1EE8is_int64ERK3mpz(ptr noundef nonnull align 8 dereferenceable(728) %21, ptr noundef nonnull align 8 dereferenceable(32) %4)
          to label %_ZNK8rational8is_int64Ev.exit unwind label %24

_ZNK8rational8is_int64Ev.exit:                    ; preds = %20
  br i1 %22, label %26, label %_ZNK8rational8is_int64Ev.exit.thread

_ZNK8rational8is_int64Ev.exit.thread:             ; preds = %13, %_ZNK8rational8is_int64Ev.exit
  %23 = call ptr @__cxa_allocate_exception(i64 8) #26
  store ptr getelementptr inbounds nuw inrange(-16, 32) (i8, ptr @_ZTV18overflow_exception, i64 16), ptr %23, align 8, !tbaa !13
  invoke void @__cxa_throw(ptr nonnull %23, ptr nonnull @_ZTI18overflow_exception, ptr nonnull @_ZNSt9exceptionD2Ev) #27
          to label %37 unwind label %24

24:                                               ; preds = %20, %_ZNK8rational8is_int64Ev.exit.thread, %3
  %25 = landingpad { ptr, i32 }
          cleanup
  br label %36

26:                                               ; preds = %_ZNK8rational8is_int64Ev.exit
  %27 = load ptr, ptr @_ZN8rational13g_mpq_managerE, align 8, !tbaa !11
  %28 = invoke noundef i64 @_ZNK11mpz_managerILb1EE9get_int64ERK3mpz(ptr noundef nonnull align 8 dereferenceable(728) %27, ptr noundef nonnull align 8 dereferenceable(32) %4)
          to label %_ZNK8rational9get_int64Ev.exit unwind label %29

_ZNK8rational9get_int64Ev.exit:                   ; preds = %26
  store i64 %28, ptr %2, align 8, !tbaa !15
  br label %31

29:                                               ; preds = %26
  %30 = landingpad { ptr, i32 }
          cleanup
  br label %36

31:                                               ; preds = %12, %_ZNK8rational9get_int64Ev.exit
  %32 = load ptr, ptr @_ZN8rational13g_mpq_managerE, align 8, !tbaa !11
  invoke void @_ZN11mpz_managerILb1EE3delEPS0_R3mpz(ptr noundef %32, ptr noundef nonnull align 8 dereferenceable(32) %4)
          to label %.noexc.i unwind label %33

.noexc.i:                                         ; preds = %31
  invoke void @_ZN11mpz_managerILb1EE3delEPS0_R3mpz(ptr noundef %32, ptr noundef nonnull align 8 dereferenceable(16) %7)
          to label %_ZN8rationalD2Ev.exit unwind label %33

33:                                               ; preds = %.noexc.i, %31
  %34 = landingpad { ptr, i32 }
          catch ptr null
  %35 = extractvalue { ptr, i32 } %34, 0
  call void @__clang_call_terminate(ptr %35) #28
  unreachable

_ZN8rationalD2Ev.exit:                            ; preds = %.noexc.i
  call void @llvm.lifetime.end.p0(i64 32, ptr nonnull %4) #26
  ret i1 %11

36:                                               ; preds = %29, %24
  %.pn = phi { ptr, i32 } [ %30, %29 ], [ %25, %24 ]
  call void @_ZN8rationalD2Ev(ptr noundef nonnull align 8 dereferenceable(32) %4) #26
  call void @llvm.lifetime.end.p0(i64 32, ptr nonnull %4) #26
  resume { ptr, i32 } %.pn

37:                                               ; preds = %_ZNK8rational8is_int64Ev.exit.thread
  unreachable
}